(dp0
I0
S'REL$/business/company/place_founded'
p1
sI1
S'REL$/business/person/company'
p2
sI2
S'REL$/people/person/parents:INV'
p3
sI3
S'REL$/location/neighborhood/neighborhood_of'
p4
sI4
S'REL$/business/company/founders'
p5
sI5
S'REL$/people/person/parents'
p6
sI6
S'REL$/people/person/nationality'
p7
sI7
S'REL$/organization/parent/child'
p8
s.